target datalayout = "e-m:e-p270:32:32-p271:32:32-p272:64:64-i64:64-i128:128-f80:128-n8:16:32:64-S128"
target triple = "x86_64-unknown-linux-gnu"

%struct.VFIODevice = type { %struct.anon, %struct.anon.0, %struct.anon.1, ptr, ptr, ptr, ptr, ptr, i32, i32, i8, i8, i8, i8, i32, ptr, i32, i32, i32, ptr, ptr, i32, i8, i8 }
%struct.anon = type { ptr, ptr }
%struct.anon.0 = type { ptr, ptr }
%struct.anon.1 = type { ptr, ptr }
%struct.VFIOMigration = type { ptr, ptr, %struct.Notifier, i32, i32, ptr, i64, i64, i64, i64, i8 }
%struct.Notifier = type { ptr, %struct.anon.2 }
%struct.anon.2 = type { ptr, ptr }

; Function Attrs: nounwind sspstrong uwtable
define internal i32 @vfio_load_setup(ptr noundef %f, ptr noundef %opaque) #0 {
entry:
  %f.addr = alloca ptr, align 8
  %opaque.addr = alloca ptr, align 8
  %vbasedev = alloca ptr, align 8
  store ptr %f, ptr %f.addr, align 8
  store ptr %opaque, ptr %opaque.addr, align 8
  %0 = load ptr, ptr %opaque.addr, align 8
  store ptr %0, ptr %vbasedev, align 8
  %1 = load ptr, ptr %vbasedev, align 8
  %2 = load ptr, ptr %vbasedev, align 8
  %migration = getelementptr inbounds %struct.VFIODevice, ptr %2, i32 0, i32 19
  %3 = load ptr, ptr %migration, align 8
  %device_state = getelementptr inbounds %struct.VFIOMigration, ptr %3, i32 0, i32 3
  %4 = load i32, ptr %device_state, align 8
  %call = call i32 @vfio_migration_set_state(ptr noundef %1, i32 noundef 4, i32 noundef %4)
  ret i32 %call
}