; Function Attrs: nounwind sspstrong uwtable
define internal i32 @vfio_load_setup(ptr readnone captures(none) %f, ptr noundef readonly captures(none) %opaque) #2 {
entry:
  %migration = getelementptr inbounds nuw i8, ptr %opaque, i64 128
  %0 = load ptr, ptr %migration, align 8
  %device_state = getelementptr inbounds nuw i8, ptr %0, i64 40
  %1 = load i32, ptr %device_state, align 8
  %call = tail call fastcc i32 @vfio_migration_set_state(ptr noundef %opaque, i32 noundef 4, i32 noundef %1)
  ret i32 %call
}